(lp0
S'Take me down to that paradise city!'
p1
aS'One day more for revolution!'
p2
aS'Standing on the rooftops, everybody scream your heart out!'
p3
aS'And I would walk 500 miles, and I would walk 500 more!'
p4
aS'Well I guess I should confess that I am starting to get old - all the latest music fads all pass me by and left me cold'
p5
aS'Mr. Sandman, bring me a dream!'
p6
aS"Freedom's just another word for nothing left to lose"
p7
aS'Wishing well, will you marry me?'
p8
aS'Sweet Caroline, woah woah woah! Good times never felt so good!'
p9
aS"I'm not ok, I'm not ooooh-kaaaay, I'm not okay-aaay-aaaay, you wear me out"
p10
aS'Please, please, please; let me, let me, let me, get what I want!'
p11
aS"It's looking like a beautiful day"
p12
aS'Teach me how to understand Christmas'
p13
aS"I can't help thinking, we could have had it all!"
p14
aS"He doesn't look a thing like Jesus!"
p15
aS'El perro, el perro, es mi corazon! El gato, el gato, el gato no es bueno!'
p16
aS"Got so many clothes, I keep some at my aunt's house!"
p17
aS'God gave rock and roll to you!'
p18
aS'Ive got soul, but Im not a soldier!'
p19
aS'There she stood, in the street, smiling from her head to her feet!'
p20
aS"I'm a Barbie girl, in my Barbie world! Life in plastic"
p21
aS"I'm a Barbie girl, in my Barbie world! Life in plastic, it's fantastic!"
p22
aS'One night to be confused, one night to speed up truth'
p23
aS'One night to be confused, one night to speed up truth. We had a promise made, four hands and then away.'
p24
aS'I want to break free, I want to break free!'
p25
aS'I need a few things from the grocery, do things alone now mosterly...'
p26
aS'She was more like a beauty queen, from a movie scene!'
p27
aS'Happiness, hit her, like a train on a track!'
p28
aS"They're gonna clean up your looks, with all the lies in their books, to make a citizen out of you!"
p29
aS'Rah rah Rasputin, lover of the Russian queen!'
p30
aS'Say my name, say my name!'
p31
aS'I wanna know what love is! I want you to show me!'
p32
aS'Fix up, look sharp!'
p33
aS'Change your heart...look around you...'
p34
aS'You took the words right out of my mouth; it must have been while you were kissing me!'
p35
aS'(doo doo doo doo, doo doo doo, doo doo doo, doo doo) Barbara Streisland!'
p36
aS'Do you really want to hurt me? Do you really want to make me cry?'
p37
aS'I want to get away, I want to fly away!'
p38
aS'I touch the fire and it freezes me...'
p39
aS'Nothing lasts forever, in the cold november rain!'
p40
aS"I'll be your number one with a bullet; a loaded God complex, cock it and pull it!"
p41
aS'Hate to say I told you so!'
p42
aS"I'm the hip-hop-apotamus, my rhymes are bottomless..."
p43
aS"Let's get fucked up and die!"
p44
aS'I wanna rock!'
p45
aS'It may not feel too classy begging just to eat. But you know who does that? Lassie. And she always gets a treat.'
p46
aS'Where do we go from here?'
p47
aS'The answer, my friend, is blowing in the wind; the answer is blowing in the wind.'
p48
aS'I wanna do bad things to you...'
p49
aS'Push it to the limit!'
p50
aS"And it's written clear in my diary, today should have been our anniversary..."
p51
aS"It's just your nineteenth nervous breakdown!"
p52
aS'All the lonely people, where do they all come from!? All the lonely people, where do they all belong!?'
p53
aS'Girl, I want to be with you, all day, and all of the night!'
p54
aS'Like the angel you are, you laugh creating a lightness in my chest!'
p55
aS"Don't worry, be happy!"
p56
aS'I told the witch doctor I was in love with you!'
p57
aS"And I need you now tonight, and I need you more than ever! And if you'd only hold me tight, we'd be holding on forever!"
p58
aS'Reach out and touch faith!'
p59
aS'And I was like baby, baby, baby, oh! Baby, baby, baby, no!'
p60
aS"I'm happy, feeling glad, I've got sunshine, in a bag!"
p61
aS"My mind is tellin' me no, but my body, my body's tellin' me yes!"
p62
aS"I'm just a teenage dirtbag, baby!"
p63
aS'There is love burning to find you, will you wait for me? Will you be here?'
p64
aS'You! I want to take you to a gay bar!'
p65
aS'These girls fall like dominoes!'
p66
aS'I walk a lonely road, the only road that I have ever known!'
p67
aS'I said a bang, bang, a-bangiddy-bang, I said a bang-bang bangiddy-bang!'
p68
aS'Hearts on fire, strong desire, burning deep within!'
p69
aS'Scream if you wanna go faster!'
p70
aS'Ninety-nine bottles of beer on the wall, ninety-nine bottles of beer...'
p71
aS'This is the greatest and best song in the world. Tribute.'
p72
aS"The only thing I'll ever ask of you, you've got to promise not to stop when I saw when!"
p73
aS"I can't get no satisfaction!"
p74
aS'The sun is a mass of incandescent gas, a gigantic nuclear furnace!'
p75
aS"It's the final countdown!"
p76
aS'All the young dudes, carry the news!'
p77
aS'We build this city on rock and roll!'
p78
aS"Dry your eyes mate, I know you want to make her see how much this pain hurts, but you've got to walk away now."
p79
aS'Lipgloss lies, doing the time, never gonna miss what I left behind!'
p80
aS'And I cherish you, my love!'
p81
aS'There must be some kind of way out of here, said the Joker to the Thief!'
p82
aS'At the car wash!'
p83
aS"Take this life, I'm right here, stay a while and breathe me in!"
p84
aS"And she's buying a stairway to heaven!"
p85
aS"Don't you forget about me!"
p86
aS'You never close your eyes anymore when I kiss your lips!'
p87
aS'Teenagers scare the living shit out of me!'
p88
aS"If you're having girl problems, I feel bad for you son; I got 99 problems, but a bitch ain't one!"
p89
aS'Heaven is a halfpipe!'
p90
aS"If you leave me now, you'd take away the biggest part of me!"
p91
aS"Coming out of my cage, and I've been doing just fine; gotta gotta be down, because I want it all!"
p92
aS"The drugs don't work, they just make things worse!"
p93
aS'No alarms and no surprises!'
p94
aS'Without love, where would you be right now?'
p95
aS'Knowing me, knowing you - a-hah!'
p96
aS"No-one's gonna take me alive! The time has come to make things right!"
p97
aS'Do you love me, now that I can dance?'
p98
aS'I bet that you look good on the dancefloor!'
p99
aS'Step to the bass, and the lyrics swagger!'
p100
aS"I'm on my way, from misery to happiness today!"
p101
aS'Out to Ryan, out to Chuddy'
p102
aS'I wanna live like common people!'
p103
aS'Ramona, Ramona!'
p104
aS"In my place, in my place, were lines that I couldn't trace!"
p105
aS'This is the tale of Captain Jack Sparrow - the pirate so brave, on the seven seas!'
p106
aS"I wish I was special - you're so fucking special!"
p107
aS"'Cos you got my heart in a headlock, you stopped the blood and made my head soft, and God knows, you got me sewn."
p108
aS"They won't see us waving from such great heights!"
p109
aS"You don't know how you met me, you don't know why you can't turn around and say goodbye!"
p110
aS"Don't get me wrong though, there's boys in bands; and kids who like to scrap with pool cues in their hands."
p111
aS'Two riders were approaching, and the wind began to howl!'
p112
aS"Layla, you've got me on my knees! Layla, I'm begging, darling, please!"
p113
aS"But I will hold on hope, and I won't let you choke, on the noose around your neck!"
p114
aS"Anyway the wind blows, doesn't really matter, to me!"
p115
aS"Hey now, you're an all-star, get your game on, go play!"
p116
aS'When I get lonely, and the longing gets too much'
p117
aS'When I get lonely, and th elonging gets too much; she sends a comfort coming in from above!'
p118
aS'Hotel, motel, holiday Inn!'
p119
aS'I am not your rolling wheels, I am the highway!'
p120
aS"What's my age again?"
p121
aS"Now I will tell you what I've done for you; fifteen thousand tears I've cried!"
p122
aS'Tommy used to work on the dock!'
p123
aS'Why did you do it? Why did you do that thing to me?'
p124
aS'Is this burning an eternal flame?'
p125
aS"Don't stop me now, I'm having such a good time, I'm having a ball!"
p126
aS'All you touch, and all you see, is all your life will ever be...'
p127
aS'I want to break free, I want to break free!'
p128
aS"I am heaven sent, don't you dare forget. I am all you've ever wanted, what all the other boys all promised."
p129
aS"Hello, is it me you're looking for?"
p130
aS"You can't always get what you want; but if you try, sometimes, you'll find, you get what you need!"
p131
aS'Are you gonna be my girl?'
p132
aS"I've got another confession to make; I'm your fool!"
p133
aS'When I was a young boy, my father took me into the city, to see a marching band.'
p134
aS'Can I play with madness!?'
p135
aS"Forever's gonna start tonight!"
p136
aS"Players only love you when they're playing!!!"
p137
aS'I can see the perfect sky is torn!'
p138
a.