(lp0
S'Take me down to that paradise city!'
p1
aS'One day more for revolution!'
p2
aS'Standing on the rooftops, everybody scream your heart out!'
p3
aS'And I would walk 500 miles, and I would walk 500 more!'
p4
aS'Well I guess I should confess that I am starting to get old - all the latest music fads all pass me by and left me cold'
p5
aS'Mr. Sandman, bring me a dream!'
p6
aS"Freedom's just another word for nothing left to lose"
p7
aS'Wishing well, will you marry me?'
p8
aS'Sweet Caroline, woah woah woah! Good times never felt so good!'
p9
aS"I'm not ok, I'm not ooooh-kaaaay, I'm not okay-aaay-aaaay, you wear me out"
p10
aS'Please, please, please; let me, let me, let me, get what I want!'
p11
aS"It's looking like a beautiful day"
p12
aS'Teach me how to understand Christmas'
p13
aS"I can't help thinking, we could have had it all!"
p14
aS"He doesn't look a thing like Jesus!"
p15
aS'El perro, el perro, es mi corazon! El gato, el gato, el gato no es bueno!'
p16
aS"Got so many clothes, I keep some at my aunt's house!"
p17
aS'God gave rock and roll to you!'
p18
aS'There she stood, in the street, smiling from her head to her feet!'
p19
aS"I'm a Barbie girl, in my Barbie world! Life in plastic, it's fantastic!"
p20
aS'One night to be confused, one night to speed up truth. We had a promise made, four hands and then away.'
p21
aS'I want to break free, I want to break free!'
p22
aS'I need a few things from the grocery, do things alone now mosterly...'
p23
aS'She was more like a beauty queen, from a movie scene!'
p24
aS'Happiness, hit her, like a train on a track!'
p25
aS"They're gonna clean up your looks, with all the lies in their books, to make a citizen out of you!"
p26
aS'Rah rah Rasputin, lover of the Russian queen!'
p27
aS'Say my name, say my name!'
p28
aS'I wanna know what love is! I want you to show me!'
p29
aS'Fix up, look sharp!'
p30
aS'Change your heart...look around you...'
p31
aS'You took the words right out of my mouth; it must have been while you were kissing me!'
p32
aS'(doo doo doo doo, doo doo doo, doo doo doo, doo doo) Barbara Streisland!'
p33
aS'Do you really want to hurt me? Do you really want to make me cry?'
p34
aS'I want to get away, I want to fly away!'
p35
aS'I touch the fire and it freezes me...'
p36
aS'Nothing lasts forever, in the cold november rain!'
p37
aS"I'll be your number one with a bullet; a loaded God complex, cock it and pull it!"
p38
aS'Hate to say I told you so!'
p39
aS"I'm the hip-hop-apotamus, my rhymes are bottomless..."
p40
aS"Let's get fucked up and die!"
p41
aS'I wanna rock!'
p42
aS'It may not feel too classy begging just to eat. But you know who does that? Lassie. And she always gets a treat.'
p43
aS'Where do we go from here?'
p44
aS'The answer, my friend, is blowing in the wind; the answer is blowing in the wind.'
p45
aS'I wanna do bad things to you...'
p46
aS'Push it to the limit!'
p47
aS"And it's written clear in my diary, today should have been our anniversary..."
p48
aS"It's just your nineteenth nervous breakdown!"
p49
aS'All the lonely people, where do they all come from!? All the lonely people, where do they all belong!?'
p50
aS'Girl, I want to be with you, all day, and all of the night!'
p51
aS'Like the angel you are, you laugh creating a lightness in my chest!'
p52
aS"Don't worry, be happy!"
p53
aS'I told the witch doctor I was in love with you!'
p54
aS"And I need you now tonight, and I need you more than ever! And if you'd only hold me tight, we'd be holding on forever!"
p55
aS'Reach out and touch faith!'
p56
aS'And I was like baby, baby, baby, oh! Baby, baby, baby, no!'
p57
aS"I'm happy, feeling glad, I've got sunshine, in a bag!"
p58
aS"My mind is tellin' me no, but my body, my body's tellin' me yes!"
p59
aS"I'm just a teenage dirtbag, baby!"
p60
aS'There is love burning to find you, will you wait for me? Will you be here?'
p61
aS'You! I want to take you to a gay bar!'
p62
aS'These girls fall like dominoes!'
p63
aS'I walk a lonely road, the only road that I have ever known!'
p64
aS'I said a bang, bang, a-bangiddy-bang, I said a bang-bang bangiddy-bang!'
p65
aS'Hearts on fire, strong desire, burning deep within!'
p66
aS'Scream if you wanna go faster!'
p67
aS'Ninety-nine bottles of beer on the wall, ninety-nine bottles of beer...'
p68
aS'This is the greatest and best song in the world. Tribute.'
p69
aS"The only thing I'll ever ask of you, you've got to promise not to stop when I saw when!"
p70
aS"I can't get no satisfaction!"
p71
aS'The sun is a mass of incandescent gas, a gigantic nuclear furnace!'
p72
aS"It's the final countdown!"
p73
aS'All the young dudes, carry the news!'
p74
aS'We build this city on rock and roll!'
p75
aS"Dry your eyes mate, I know you want to make her see how much this pain hurts, but you've got to walk away now."
p76
aS'Lipgloss lies, doing the time, never gonna miss what I left behind!'
p77
aS'And I cherish you, my love!'
p78
aS'There must be some kind of way out of here, said the Joker to the Thief!'
p79
aS'At the car wash!'
p80
aS"Take this life, I'm right here, stay a while and breathe me in!"
p81
aS"And she's buying a stairway to heaven!"
p82
aS"Don't you forget about me!"
p83
aS'You never close your eyes anymore when I kiss your lips!'
p84
aS'Teenagers scare the living shit out of me!'
p85
aS"If you're having girl problems, I feel bad for you son; I got 99 problems, but a bitch ain't one!"
p86
aS'Heaven is a halfpipe!'
p87
aS"If you leave me now, you'd take away the biggest part of me!"
p88
aS"Coming out of my cage, and I've been doing just fine; gotta gotta be down, because I want it all!"
p89
aS"The drugs don't work, they just make things worse!"
p90
aS'No alarms and no surprises!'
p91
aS'Without love, where would you be right now?'
p92
aS'Knowing me, knowing you - a-hah!'
p93
aS"No-one's gonna take me alive! The time has come to make things right!"
p94
aS'Do you love me, now that I can dance?'
p95
aS'I bet that you look good on the dancefloor!'
p96
aS'Step to the bass, and the lyrics swagger!'
p97
aS"I'm on my way, from misery to happiness today!"
p98
aS'Out to Ryan, out to Chuddy'
p99
aS'I wanna live like common people!'
p100
aS'Ramona, Ramona!'
p101
aS"In my place, in my place, were lines that I couldn't trace!"
p102
aS'This is the tale of Captain Jack Sparrow - the pirate so brave, on the seven seas!'
p103
aS"I wish I was special - you're so fucking special!"
p104
aS"'Cos you got my heart in a headlock, you stopped the blood and made my head soft, and God knows, you got me sewn."
p105
aS"They won't see us waving from such great heights!"
p106
aS"You don't know how you met me, you don't know why you can't turn around and say goodbye!"
p107
aS"Don't get me wrong though, there's boys in bands; and kids who like to scrap with pool cues in their hands."
p108
aS'Two riders were approaching, and the wind began to howl!'
p109
aS"Layla, you've got me on my knees! Layla, I'm begging, darling, please!"
p110
aS"But I will hold on hope, and I won't let you choke, on the noose around your neck!"
p111
aS"Anyway the wind blows, doesn't really matter, to me!"
p112
aS"Hey now, you're an all-star, get your game on, go play!"
p113
aS'Hotel, motel, holiday Inn!'
p114
aS'I am not your rolling wheels, I am the highway!'
p115
aS"What's my age again?"
p116
aS"Now I will tell you what I've done for you; fifteen thousand tears I've cried!"
p117
aS'Tommy used to work on the dock!'
p118
aS'Why did you do it? Why did you do that thing to me?'
p119
aS'Is this burning an eternal flame?'
p120
aS"Don't stop me now, I'm having such a good time, I'm having a ball!"
p121
aS'All you touch, and all you see, is all your life will ever be...'
p122
aS'I want to break free, I want to break free!'
p123
aS"I am heaven sent, don't you dare forget. I am all you've ever wanted, what all the other boys all promised."
p124
aS"Hello, is it me you're looking for?"
p125
aS"You can't always get what you want; but if you try, sometimes, you'll find, you get what you need!"
p126
aS'Are you gonna be my girl?'
p127
aS"I've got another confession to make; I'm your fool!"
p128
aS'When I was a young boy, my father took me into the city, to see a marching band.'
p129
aS'Can I play with madness!?'
p130
aS"Forever's gonna start tonight!"
p131
aS"Players only love you when they're playing!!!"
p132
aS'I can see the perfect sky is torn!'
p133
aS'Divided we must pray for the broken, no-one can fix us!'
p134
aS"How can you have any meat if you don't eat your pudding?"
p135
aS"It's time for you to choose; the bullet or the chapstick: you are far too cute, or whatever he said..."
p136
aS"Whatever poison's in this bottle will leave me broken, sore and stiff"
p137
aS"Tell all the English boys you meet, 'bout the American boy back in the states!"
p138
aS"I've got soul, but I'm not a soldier!"
p139
aS'Highway to the Danger Zone!'
p140
aS"If it looks like I'm laughing, I'm really just asking to leave!"
p141
aS'To be yourself is all that you can do!'
p142
aS"I've been working on a cocktail called grounds for divorce!"
p143
aS'Got a whole lotta love!'
p144
aS"I'm all outta love!"
p145
aS'I want to ride my bicycle!'
p146
aS'Come together, right now, over me!'
p147
aS'Take this razor, sign your name across my wrist, so everyone will know who left me like this!'
p148
aS'Everybody needs somebody!'
p149
aS'Angie, Angie; when will those clouds all disappear?'
p150
aS'Is this it?'
p151
aS"And now I realise, I'd give anything I had, just to walk a day in my old shoes..."
p152
aS'I used to be such a burning example, I used to be so original.'
p153
aS'I used to pray like God was listening. I used to make my parents proud.'
p154
aS'Whoa-a-oh, am I in trouble? Darling, I apologise...'
p155
a.